(lp0
((dp1
S'bomber'
p2
I01
sI00
tp3
a((dp4
S'kill'
p5
I01
sI00
tp6
a((dp7
S'shopper'
p8
I01
sI00
tp9
a((dp10
S'bush'
p11
I01
sI01
tp12
a((dp13
S'insist'
p14
I01
sI01
tp15
a((dp16
S'troop'
p17
I01
sI01
tp18
a((dp19
S'stay'
p20
I01
sI01
tp21
a((dp22
S'iraq'
p23
I01
sI01
tp24
a((dp25
S'predict'
p26
I01
sI01
tp27
a((dp28
S'midterm'
p29
I01
sI01
tp30
a((dp31
S'victory'
p32
I01
sI01
tp33
a((dp34
S'beat'
p35
I01
sI01
tp36
a((dp37
S'poverty'
p38
I01
sI01
tp39
a((dp40
S'small'
p41
I01
sI01
tp42
a((dp43
S'way'
p44
I01
sI01
tp45
a((dp46
S'lie'
p47
I01
sI00
tp48
a((dp49
S'damn'
p50
I01
sI00
tp51
a((dp52
S'lie'
p53
I01
sI00
tp54
a((dp55
S'divorce'
p56
I01
sI00
tp57
a((dp58
S'german'
p59
I01
sI01
tp60
a((dp61
S'chief'
p62
I01
sI01
tp63
a((dp64
S'forge'
p65
I01
sI01
tp66
a((dp67
S'accord'
p68
I01
sI01
tp69
a((dp70
S'finance'
p71
I01
sI01
tp72
a((dp73
S'health'
p74
I01
sI01
tp75
a((dp76
S'care'
p77
I01
sI01
tp78
a((dp79
S'war'
p80
I01
sI01
tp81
a((dp82
S'close'
p83
I01
sI01
tp84
a((dp85
S'ethiopia'
p86
I01
sI01
tp87
a((dp88
S'tell'
p89
I01
sI01
tp90
a((dp91
S'somali'
p92
I01
sI01
tp93
a((dp94
S'rebel'
p95
I01
sI01
tp96
a((dp97
S'scientist'
p98
I01
sI01
tp99
a((dp100
S'create'
p101
I01
sI01
tp102
a((dp103
S'first'
p104
I01
sI01
tp105
a((dp106
S'cloak'
p107
I01
sI01
tp108
a((dp109
S'device'
p110
I01
sI01
tp111
a((dp112
S'advantage'
p113
I01
sI01
tp114
a((dp115
S'cardinal'
p116
I01
sI01
tp117
a((dp118
S'game'
p119
I01
sI01
tp120
a((dp121
S'sudan'
p122
I01
sI00
tp123
a((dp124
S'urge'
p125
I01
sI00
tp126
a((dp127
S'un'
p128
I01
sI00
tp129
a((dp130
S'replace'
p131
I01
sI00
tp132
a((dp133
S'special'
p134
I01
sI00
tp135
a((dp136
S'envoy'
p137
I01
sI00
tp138
a((dp139
S'moderate'
p140
I01
sI01
tp141
a((dp142
S'drink'
p143
I01
sI01
tp144
a((dp145
S'reduce'
p146
I01
sI01
tp147
a((dp148
S'men'
p149
I01
sI01
tp150
a((dp151
S'heart'
p152
I01
sI01
tp153
a((dp154
S'attack'
p155
I01
sI01
tp156
a((dp157
S'risk'
p158
I01
sI01
tp159
a((dp160
S'putin'
p161
I01
sI00
tp162
a((dp163
S'vow'
p164
I01
sI00
tp165
a((dp166
S'tackle'
p167
I01
sI00
tp168
a((dp169
S'illegal'
p170
I01
sI00
tp171
a((dp172
S'immigration'
p173
I01
sI00
tp174
a((dp175
S'nigeria'
p176
I01
sI01
tp177
a((dp178
S'hostage'
p179
I01
sI01
tp180
a((dp181
S'fear'
p182
I01
sI01
tp183
a((dp184
S'dead'
p185
I01
sI01
tp186
a((dp187
S'free'
p188
I01
sI01
tp189
a((dp190
S'griffith'
p191
I01
sI01
tp192
a((dp193
S'scorn'
p194
I01
sI01
tp195
a((dp196
S'play'
p197
I01
sI01
tp198
a((dp199
S'madonna'
p200
I01
sI01
tp201
a((dp202
S'new'
p203
I01
sI01
tp204
a((dp205
S'baby'
p206
I01
sI01
tp207
a((dp208
S'daddy'
p209
I01
sI01
tp210
a((dp211
S'realize'
p212
I01
sI01
tp213
a((dp214
S'adoption'
p215
I01
sI01
tp216
a((dp217
S'good'
p218
I01
sI01
tp219
a((dp220
S'prestige'
p221
I01
sI01
tp222
a((dp223
S'magic'
p224
I01
sI01
tp225
a((dp226
S'touch'
p227
I01
sI01
tp228
a((dp229
S'active'
p230
I01
sI01
tp231
a((dp232
S'peace'
p233
I01
sI01
tp234
a((dp235
S'bring'
p236
I01
sI01
tp237
a((dp238
S'promise'
p239
I01
sI01
tp240
a((dp241
S'development'
p242
I01
sI01
tp243
a((dp244
S'spanish'
p245
I01
sI00
tp246
a((dp247
S'journalist'
p248
I01
sI00
tp249
a((dp250
S'seize'
p251
I01
sI00
tp252
a((dp253
S'gaza'
p254
I01
sI00
tp255
a((dp256
S'baseball'
p257
I01
sI01
tp258
a((dp259
S'roger'
p260
I01
sI01
tp261
a((dp262
S'enjoy'
p263
I01
sI01
tp264
a((dp265
S'muddy'
p266
I01
sI01
tp267
a((dp268
S'streak'
p269
I01
sI01
tp270
a((dp271
S'marine'
p272
I01
sI00
tp273
a((dp274
S'kill'
p275
I01
sI00
tp276
a((dp277
S'fight'
p278
I01
sI00
tp279
a((dp280
S'west'
p281
I01
sI00
tp282
a((dp283
S'baghdad'
p284
I01
sI00
tp285
a((dp286
S'parachutist'
p287
I01
sI01
tp288
a((dp289
S'die'
p290
I01
sI01
tp291
a((dp292
S'bridge'
p293
I01
sI01
tp294
a((dp295
S'jump'
p296
I01
sI01
tp297
a((dp298
S'festival'
p299
I01
sI01
tp300
a((dp301
S'gunmen'
p302
I01
sI00
tp303
a((dp304
S'kill'
p305
I01
sI00
tp306
a((dp307
S'11'
p308
I01
sI00
tp309
a((dp310
S'iraq'
p311
I01
sI00
tp312
a((dp313
S'tv'
p314
I01
sI00
tp315
a((dp316
S'raid'
p317
I01
sI00
tp318
a((dp319
S'tumor'
p320
I01
sI01
tp321
a((dp322
S'type'
p323
I01
sI01
tp324
a((dp325
S'may'
p326
I01
sI01
tp327
a((dp328
S'explain'
p329
I01
sI01
tp330
a((dp331
S'survival'
p332
I01
sI01
tp333
a((dp334
S'rate'
p335
I01
sI01
tp336
a((dp337
S'cancer'
p338
I01
sI01
tp339
a((dp340
S'kentucky'
p341
I01
sI01
tp342
a((dp343
S'want'
p344
I01
sI01
tp345
a((dp346
S'ban'
p347
I01
sI01
tp348
a((dp349
S'alcohol'
p350
I01
sI01
tp351
a((dp352
S'inhaler'
p353
I01
sI01
tp354
a((dp355
S'flee'
p356
I01
sI00
tp357
a((dp358
S'plant'
p359
I01
sI00
tp360
a((dp361
S'fire'
p362
I01
sI00
tp363
a((dp364
S'lily'
p365
I01
sI01
tp366
a((dp367
S'allen'
p368
I01
sI01
tp369
a((dp370
S'win'
p371
I01
sI01
tp372
a((dp373
S'web'
p374
I01
sI01
tp375
a((dp376
S'music'
p377
I01
sI01
tp378
a((dp379
S'award'
p380
I01
sI01
tp381
a((dp382
S'find'
p383
I01
sI01
tp384
a((dp385
S'new'
p386
I01
sI01
tp387
a((dp388
S'kick'
p389
I01
sI01
tp390
a((dp391
S'life'
p392
I01
sI01
tp393
a((dp394
S'pari'
p395
I01
sI01
tp396
a((dp397
S'journal'
p398
I01
sI01
tp399
a((dp400
S'smoke'
p401
I01
sI01
tp402
a((dp403
S'no'
p404
I01
sI01
tp405
a((dp406
S'longer'
p407
I01
sI01
tp408
a((dp409
S'chic'
p410
I01
sI01
tp411
a((dp412
S'france'
p413
I01
sI01
tp414
a((dp415
S'make'
p416
I01
sI01
tp417
a((dp418
S'peace'
p419
I01
sI01
tp420
a((dp421
S'victory'
p422
I01
sI01
tp423
a((dp424
S'poverty'
p425
I01
sI01
tp426
a((dp427
S'gunman'
p428
I01
sI00
tp429
a((dp430
S'fine'
p431
I01
sI00
tp432
a((dp433
S'shoot'
p434
I01
sI00
tp435
a((dp436
S'pm'
p437
I01
sI01
tp438
a((dp439
S'havana'
p440
I01
sI01
tp441
a((dp442
S'deal'
p443
I01
sI01
tp444
a((dp445
S'good'
p446
I01
sI01
tp447
a((dp448
S'experiment'
p449
I01
sI01
tp450
a((dp451
S'briton'
p452
I01
sI00
tp453
a((dp454
S'admit'
p455
I01
sI00
tp456
a((dp457
S'bomb'
p458
I01
sI00
tp459
a((dp460
S'plot'
p461
I01
sI00
tp462
a((dp463
S'role'
p464
I01
sI00
tp465
a((dp466
S'inconvenient'
p467
I01
sI00
tp468
a((dp469
S'truth'
p470
I01
sI00
tp471
a((dp472
S'flood'
p473
I01
sI00
tp474
a((dp475
S'wash'
p476
I01
sI00
tp477
a((dp478
S'road'
p479
I01
sI00
tp480
a((dp481
S'valdez'
p482
I01
sI00
tp483
a((dp484
S'alaska'
p485
I01
sI00
tp486
a((dp487
S'top'
p488
I01
sI01
tp489
a((dp490
S'general'
p491
I01
sI01
tp492
a((dp493
S'optimistic'
p494
I01
sI01
tp495
a((dp496
S'iraq'
p497
I01
sI01
tp498
a((dp499
S'toddler'
p500
I01
sI00
tp501
a((dp502
S'die'
p503
I01
sI00
tp504
a((dp505
S'taint'
p506
I01
sI00
tp507
a((dp508
S'spinach'
p509
I01
sI00
tp510
a((dp511
S'hurricane'
p512
I01
sI00
tp513
a((dp514
S'paul'
p515
I01
sI00
tp516
a((dp517
S'near'
p518
I01
sI00
tp519
a((dp520
S'category'
p521
I01
sI00
tp522
a((dp523
S'statu'
p524
I01
sI00
tp525
a((dp526
S'perfect'
p527
I01
sI01
tp528
a((dp529
S'live'
p530
I01
sI01
tp531
a((dp532
S'lose'
p533
I01
sI01
tp534
a((dp535
S'focus'
p536
I01
sI01
tp537
a((dp538
S'bad'
p539
I01
sI00
tp540
a((dp541
S'weather'
p542
I01
sI00
tp543
a((dp544
S'slow'
p545
I01
sI00
tp546
a((dp547
S'korean'
p548
I01
sI00
tp549
a((dp550
S'search'
p551
I01
sI00
tp552
a((dp553
S'russian'
p554
I01
sI00
tp555
a((dp556
S'ship'
p557
I01
sI00
tp558
a((dp559
S'full'
p560
I01
sI01
tp561
a((dp562
S'recovery'
p563
I01
sI01
tp564
a((dp565
S'expect'
p566
I01
sI01
tp567
a((dp568
S'marathon'
p569
I01
sI01
tp570
a((dp571
S'winner'
p572
I01
sI01
tp573
a((dp574
S'hurricane'
p575
I01
sI01
tp576
a((dp577
S'paul'
p578
I01
sI01
tp579
a((dp580
S'weaken'
p581
I01
sI01
tp582
a((dp583
S'tropical'
p584
I01
sI01
tp585
a((dp586
S'storm'
p587
I01
sI01
tp588
a((dp589
S'hate'
p590
I01
sI00
tp591
a((dp592
S'european'
p593
I01
sI00
tp594
a((dp595
S'will'
p596
I01
sI00
tp597
a((dp598
S'prevent'
p599
I01
sI00
tp600
a((dp601
S'import'
p602
I01
sI00
tp603
a((dp604
S'life'
p605
I01
sI01
tp606
a((dp607
S'mar'
p608
I01
sI01
tp609
a((dp610
S'maybe'
p611
I01
sI01
tp612
a((dp613
S'miss'
p614
I01
sI01
tp615
a((dp616
S'it'
p617
I01
sI01
tp618
a((dp619
S'confusion'
p620
I01
sI00
tp621
a((dp622
S'reign'
p623
I01
sI00
tp624
a((dp625
S'in'
p626
I01
sI00
tp627
a((dp628
S'expand'
p629
I01
sI00
tp630
a((dp631
S'digital'
p632
I01
sI00
tp633
a((dp634
S'world'
p635
I01
sI00
tp636
a((dp637
S'teacher'
p638
I01
sI00
tp639
a((dp640
S'hide'
p641
I01
sI00
tp642
a((dp643
S'after'
p644
I01
sI00
tp645
a((dp646
S'attack'
p647
I01
sI00
tp648
a((dp649
S'islam'
p650
I01
sI00
tp651
a((dp652
S'stir'
p653
I01
sI00
tp654
a((dp655
S'threat'
p656
I01
sI00
tp657
a((dp658
S'drug'
p659
I01
sI00
tp660
a((dp661
S'offer'
p662
I01
sI00
tp663
a((dp664
S'no'
p665
I01
sI00
tp666
a((dp667
S'help'
p668
I01
sI00
tp669
a((dp670
S'study'
p671
I01
sI00
tp672
a((dp673
S'find'
p674
I01
sI00
tp675
a((dp676
S'grad'
p677
I01
sI01
tp678
a((dp679
S'student'
p680
I01
sI01
tp681
a((dp682
S'hit'
p683
I01
sI01
tp684
a((dp685
S'jackpot'
p686
I01
sI01
tp687
a((dp688
S'again'
p689
I01
sI01
tp690
a((dp691
S'opportunity'
p692
I01
sI01
tp693
a((dp694
S'knock'
p695
I01
sI01
tp696
a((dp697
S'geologist'
p698
I01
sI01
tp699
a((dp700
S'dream'
p701
I01
sI01
tp702
a((dp703
S'crater'
p704
I01
sI01
tp705
a((dp706
S'breast'
p707
I01
sI00
tp708
a((dp709
S'cancer'
p710
I01
sI00
tp711
a((dp712
S'awarenes'
p713
I01
sI00
tp714
a((dp715
S'important'
p716
I01
sI00
tp717
a((dp718
S'israel'
p719
I01
sI00
tp720
a((dp721
S'admit'
p722
I01
sI00
tp723
a((dp724
S'used'
p725
I01
sI00
tp726
a((dp727
S'phosphorou'
p728
I01
sI00
tp729
a((dp730
S'shell'
p731
I01
sI00
tp732
a((dp733
S'lebanon'
p734
I01
sI00
tp735
a((dp736
S'acros'
p737
I01
sI00
tp738
a((dp739
S'europe'
p740
I01
sI00
tp741
a((dp742
S'worry'
p743
I01
sI00
tp744
a((dp745
S'islam'
p746
I01
sI00
tp747
a((dp748
S'spread'
p749
I01
sI00
tp750
a((dp751
S'center'
p752
I01
sI00
tp753
a((dp754
S'seduce'
p755
I01
sI01
tp756
a((dp757
S'snack'
p758
I01
sI01
tp759
a((dp760
S'no'
p761
I01
sI01
tp762
a((dp763
S'not'
p764
I01
sI01
tp765
a((dp766
S'deep'
p767
I01
sI01
tp768
a((dp769
S'sea'
p770
I01
sI01
tp771
a((dp772
S'gig'
p773
I01
sI01
tp774
a((dp775
S'set'
p776
I01
sI01
tp777
a((dp778
S'record'
p779
I01
sI01
tp780
a((dp781
S'pot'
p782
I01
sI01
tp783
a((dp784
S'smoker'
p785
I01
sI01
tp786
a((dp787
S'may'
p788
I01
sI01
tp789
a((dp790
S'avoid'
p791
I01
sI01
tp792
a((dp793
S'study'
p794
I01
sI01
tp795
a((dp796
S'say'
p797
I01
sI01
tp798
a((dp799
S'star'
p800
I01
sI00
tp801
a((dp802
S'scuffle'
p803
I01
sI00
tp804
a((dp805
S'grey'
p806
I01
sI00
tp807
a((dp808
S'anatomy'
p809
I01
sI00
tp810
a((dp811
S'who'
p812
I01
sI00
tp813
a((dp814
S'call'
p815
I01
sI00
tp816
a((dp817
S'fat'
p818
I01
sI00
tp819
a((dp820
S'appeal'
p821
I01
sI01
tp822
a((dp823
S'chinese'
p824
I01
sI01
tp825
a((dp826
S'researcher'
p827
I01
sI01
tp828
a((dp829
S'time'
p830
I01
sI01
tp831
a((dp832
S'may'
p833
I01
sI01
tp834
a((dp835
S'soon'
p836
I01
sI01
tp837
a((dp838
S'be'
p839
I01
sI01
tp840
a((dp841
S'hear'
p842
I01
sI01
tp843
a((dp844
S'picture'
p845
I01
sI00
tp846
a((dp847
S'thousand'
p848
I01
sI00
tp849
a((dp850
S'word'
p851
I01
sI00
tp852
a((dp853
S'bangladesh'
p854
I01
sI00
tp855
a((dp856
S'ferry'
p857
I01
sI00
tp858
a((dp859
S'sink'
p860
I01
sI00
tp861
a((dp862
S'15'
p863
I01
sI00
tp864
a((dp865
S'dead'
p866
I01
sI00
tp867
a((dp868
S'cite'
p869
I01
sI01
tp870
a((dp871
S'spy'
p872
I01
sI01
tp873
a((dp874
S'agency'
p875
I01
sI01
tp876
a((dp877
S'study'
p878
I01
sI01
tp879
a((dp880
S'democrat'
p881
I01
sI01
tp882
a((dp883
S'seek'
p884
I01
sI01
tp885
a((dp886
S'iraq'
p887
I01
sI01
tp888
a((dp889
S'change'
p890
I01
sI01
tp891
a((dp892
S'10'
p893
I01
sI00
tp894
a((dp895
S'die'
p896
I01
sI00
tp897
a((dp898
S'22'
p899
I01
sI00
tp900
a((dp901
S'hour'
p902
I01
sI00
tp903
a((dp904
S'kashmir'
p905
I01
sI00
tp906
a((dp907
S'standoff'
p908
I01
sI00
tp909
a((dp910
S'combative'
p911
I01
sI00
tp912
a((dp913
S'bush'
p914
I01
sI00
tp915
a((dp916
S'release'
p917
I01
sI00
tp918
a((dp919
S'part'
p920
I01
sI00
tp921
a((dp922
S'terror'
p923
I01
sI00
tp924
a((dp925
S'study'
p926
I01
sI00
tp927
a((dp928
S'women'
p929
I01
sI01
tp930
a((dp931
S'60'
p932
I01
sI01
tp933
a((dp934
S'perfectly'
p935
I01
sI01
tp936
a((dp937
S'good'
p938
I01
sI01
tp939
a((dp940
S'mother'
p941
I01
sI01
tp942
a((dp943
S'madonna'
p944
I01
sI01
tp945
a((dp946
S'new'
p947
I01
sI01
tp948
a((dp949
S'tot'
p950
I01
sI01
tp951
a((dp952
S'happy'
p953
I01
sI01
tp954
a((dp955
S'home'
p956
I01
sI01
tp957
a((dp958
S'london'
p959
I01
sI01
tp960
a((dp961
S'flirt'
p962
I01
sI01
tp963
a((dp964
S'record'
p965
I01
sI01
tp966
a((dp967
S'high'
p968
I01
sI01
tp969
a((dp970
S'more'
p971
I01
sI00
tp972
a((dp973
S'human'
p974
I01
sI00
tp975
a((dp976
S'remain'
p977
I01
sI00
tp978
a((dp979
S'find'
p980
I01
sI00
tp981
a((dp982
S'grind'
p983
I01
sI00
tp984
a((dp985
S'zero'
p986
I01
sI00
tp987
a((dp988
S'gunmen'
p989
I01
sI00
tp990
a((dp991
S'kill'
p992
I01
sI00
tp993
a((dp994
S'iraqi'
p995
I01
sI00
tp996
a((dp997
S'tv'
p998
I01
sI00
tp999
a((dp1000
S'station'
p1001
I01
sI00
tp1002
a((dp1003
S'police'
p1004
I01
sI00
tp1005
a((dp1006
S'shopper'
p1007
I01
sI00
tp1008
a((dp1009
S'target'
p1010
I01
sI00
tp1011
a((dp1012
S'grow'
p1013
I01
sI00
tp1014
a((dp1015
S'iraq'
p1016
I01
sI00
tp1017
a((dp1018
S'violence'
p1019
I01
sI00
tp1020
a((dp1021
S'photographer'
p1022
I01
sI00
tp1023
a((dp1024
S'kidnap'
p1025
I01
sI00
tp1026
a((dp1027
S'gaza'
p1028
I01
sI00
tp1029
a((dp1030
S'life'
p1031
I01
sI00
tp1032
a((dp1033
S'live'
p1034
I01
sI00
tp1035
a((dp1036
S'edge'
p1037
I01
sI00
tp1038
a((dp1039
S'doctor'
p1040
I01
sI01
tp1041
a((dp1042
S'see'
p1043
I01
sI01
tp1044
a((dp1045
S'patient'
p1046
I01
sI01
tp1047
a((dp1048
S'who'
p1049
I01
sI01
tp1050
a((dp1051
S'think'
p1052
I01
sI01
tp1053
a((dp1054
S'internet'
p1055
I01
sI01
tp1056
a((dp1057
S'addict'
p1058
I01
sI01
tp1059
a((dp1060
S'4th'
p1061
I01
sI00
tp1062
a((dp1063
S'person'
p1064
I01
sI00
tp1065
a((dp1066
S'die'
p1067
I01
sI00
tp1068
a((dp1069
S'receive'
p1070
I01
sI00
tp1071
a((dp1072
S'flu'
p1073
I01
sI00
tp1074
a((dp1075
S'shoot'
p1076
I01
sI00
tp1077
a((dp1078
S'riot'
p1079
I01
sI00
tp1080
a((dp1081
S'warn'
p1082
I01
sI00
tp1083
a((dp1084
S'france'
p1085
I01
sI00
tp1086
a((dp1087
S'suburb'
p1088
I01
sI00
tp1089
a((dp1090
S'win'
p1091
I01
sI01
tp1092
a((dp1093
S'sexual'
p1094
I01
sI01
tp1095
a((dp1096
S'suit'
p1097
I01
sI01
tp1098
a((dp1099
S'source'
p1100
I01
sI01
tp1101
a((dp1102
S'squirrel'
p1103
I01
sI00
tp1104
a((dp1105
S'jump'
p1106
I01
sI00
tp1107
a((dp1108
S'boy'
p1109
I01
sI00
tp1110
a((dp1111
S'park'
p1112
I01
sI00
tp1113
a((dp1114
S'raby'
p1115
I01
sI00
tp1116
a((dp1117
S'suspect'
p1118
I01
sI00
tp1119
a((dp1120
S'marry'
p1121
I01
sI01
tp1122
a((dp1123
S'school'
p1124
I01
sI00
tp1125
a((dp1126
S'end'
p1127
I01
sI00
tp1128
a((dp1129
S'football'
p1130
I01
sI00
tp1131
a((dp1132
S'season'
p1133
I01
sI00
tp1134
a((dp1135
S'start'
p1136
I01
sI00
tp1137
a((dp1138
S'turkish'
p1139
I01
sI01
tp1140
a((dp1141
S'writer'
p1142
I01
sI01
tp1143
a((dp1144
S'say'
p1145
I01
sI01
tp1146
a((dp1147
S'effort'
p1148
I01
sI01
tp1149
a((dp1150
S'stifle'
p1151
I01
sI01
tp1152
a((dp1153
S'speech'
p1154
I01
sI01
tp1155
a((dp1156
S'may'
p1157
I01
sI01
tp1158
a((dp1159
S'backfire'
p1160
I01
sI01
tp1161
a((dp1162
S'trio'
p1163
I01
sI01
tp1164
a((dp1165
S'protect'
p1166
I01
sI01
tp1167
a((dp1168
S'city'
p1169
I01
sI01
tp1170
a((dp1171
S'bay'
p1172
I01
sI01
tp1173
a((dp1174
S'police'
p1175
I01
sI00
tp1176
a((dp1177
S'warn'
p1178
I01
sI00
tp1179
a((dp1180
S'child'
p1181
I01
sI00
tp1182
a((dp1183
S'exploitation'
p1184
I01
sI00
tp1185
a((dp1186
S'online'
p1187
I01
sI00
tp1188
a((dp1189
S'vegetable'
p1190
I01
sI01
tp1191
a((dp1192
S'fruit'
p1193
I01
sI01
tp1194
a((dp1195
S'slow'
p1196
I01
sI01
tp1197
a((dp1198
S'brain'
p1199
I01
sI01
tp1200
a((dp1201
S'decline'
p1202
I01
sI01
tp1203
a((dp1204
S'peter'
p1205
I01
sI01
tp1206
a((dp1207
S'pan'
p1208
I01
sI01
tp1209
a((dp1210
S'fly'
p1211
I01
sI01
tp1212
a((dp1213
S'chapter'
p1214
I01
sI01
tp1215
a((dp1216
S'two'
p1217
I01
sI01
tp1218
a((dp1219
S'la'
p1220
I01
sI01
tp1221
a((dp1222
S'vega'
p1223
I01
sI01
tp1224
a((dp1225
S'honour'
p1226
I01
sI01
tp1227
a((dp1228
S'tiger'
p1229
I01
sI01
tp1230
a((dp1231
S'pair'
p1232
I01
sI01
tp1233
a((dp1234
S'china'
p1235
I01
sI01
tp1236
a((dp1237
S'launch'
p1238
I01
sI01
tp1239
a((dp1240
S'two'
p1241
I01
sI01
tp1242
a((dp1243
S'satellite'
p1244
I01
sI01
tp1245
a((dp1246
S'orbit'
p1247
I01
sI01
tp1248
a((dp1249
S'marijuana'
p1250
I01
sI01
tp1251
a((dp1252
S'may'
p1253
I01
sI01
tp1254
a((dp1255
S'stave'
p1256
I01
sI01
tp1257
a((dp1258
S'tropical'
p1259
I01
sI00
tp1260
a((dp1261
S'storm'
p1262
I01
sI00
tp1263
a((dp1264
S'isaac'
p1265
I01
sI00
tp1266
a((dp1267
S'form'
p1268
I01
sI00
tp1269
a((dp1270
S'atlantic'
p1271
I01
sI00
tp1272
a((dp1273
S'google'
p1274
I01
sI01
tp1275
a((dp1276
S'launch'
p1277
I01
sI01
tp1278
a((dp1279
S'yet'
p1280
I01
sI01
tp1281
a((dp1282
S'another'
p1283
I01
sI01
tp1284
a((dp1285
S'search'
p1286
I01
sI01
tp1287
a((dp1288
S'tool'
p1289
I01
sI01
tp1290
a((dp1291
S'tension'
p1292
I01
sI00
tp1293
a((dp1294
S'hungary'
p1295
I01
sI00
tp1296
a((dp1297
S'mark'
p1298
I01
sI00
tp1299
a((dp1300
S'uprise'
p1301
I01
sI00
tp1302
a((dp1303
S'in'
p1304
I01
sI01
tp1305
a((dp1306
S'god'
p1307
I01
sI01
tp1308
a((dp1309
S'name'
p1310
I01
sI01
tp1311
a((dp1312
S'religion'
p1313
I01
sI01
tp1314
a((dp1315
S'base'
p1316
I01
sI01
tp1317
a((dp1318
S'tax'
p1319
I01
sI01
tp1320
a((dp1321
S'break'
p1322
I01
sI01
tp1323
a((dp1324
S'house'
p1325
I01
sI01
tp1326
a((dp1327
S'paycheck'
p1328
I01
sI01
tp1329
a((dp1330
S'book'
p1331
I01
sI01
tp1332
a((dp1333
S'global'
p1334
I01
sI01
tp1335
a((dp1336
S'sludge'
p1337
I01
sI01
tp1338
a((dp1339
S'end'
p1340
I01
sI01
tp1341
a((dp1342
S'tragedy'
p1343
I01
sI01
tp1344
a((dp1345
S'ivory'
p1346
I01
sI01
tp1347
a((dp1348
S'coast'
p1349
I01
sI01
tp1350
a((dp1351
S'disturb'
p1352
I01
sI00
tp1353
a((dp1354
S'find'
p1355
I01
sI00
tp1356
a((dp1357
S'child'
p1358
I01
sI00
tp1359
a((dp1360
S'sex'
p1361
I01
sI00
tp1362
a((dp1363
S'raid'
p1364
I01
sI00
tp1365
a((dp1366
S'yankee'
p1367
I01
sI00
tp1368
a((dp1369
S'pitcher'
p1370
I01
sI00
tp1371
a((dp1372
S'pilot'
p1373
I01
sI00
tp1374
a((dp1375
S'log'
p1376
I01
sI00
tp1377
a((dp1378
S'find'
p1379
I01
sI00
tp1380
a((dp1381
S'clash'
p1382
I01
sI00
tp1383
a((dp1384
S'kill'
p1385
I01
sI00
tp1386
a((dp1387
S'troop'
p1388
I01
sI00
tp1389
a((dp1390
S'amateur'
p1391
I01
sI01
tp1392
a((dp1393
S'rocket'
p1394
I01
sI01
tp1395
a((dp1396
S'scientist'
p1397
I01
sI01
tp1398
a((dp1399
S'reach'
p1400
I01
sI01
tp1401
a((dp1402
S'space'
p1403
I01
sI01
tp1404
a((dp1405
S'mix'
p1406
I01
sI00
tp1407
a((dp1408
S'oil'
p1409
I01
sI00
tp1410
a((dp1411
S'environmentalism'
p1412
I01
sI00
tp1413
a((dp1414
S'friend'
p1415
I01
sI01
tp1416
a((dp1417
S'life'
p1418
I01
sI01
tp1419
a((dp1420
S'an'
p1421
I01
sI01
tp1422
a((dp1423
S'emerge'
p1424
I01
sI01
tp1425
a((dp1426
S'biology'
p1427
I01
sI01
tp1428
a((dp1429
S'emotional'
p1430
I01
sI01
tp1431
a((dp1432
S'heal'
p1433
I01
sI01
tp1434
a((dp1435
S'german'
p1436
I01
sI00
tp1437
a((dp1438
S'paper'
p1439
I01
sI00
tp1440
a((dp1441
S'show'
p1442
I01
sI00
tp1443
a((dp1444
S'soldier'
p1445
I01
sI00
tp1446
a((dp1447
S'desecrate'
p1448
I01
sI00
tp1449
a((dp1450
S'skull'
p1451
I01
sI00
tp1452
a((dp1453
S'win'
p1454
I01
sI01
tp1455
a((dp1456
S'nobel'
p1457
I01
sI01
tp1458
a((dp1459
S'literature'
p1460
I01
sI01
tp1461
a((dp1462
S'prize'
p1463
I01
sI01
tp1464
a((dp1465
S'ex'
p1466
I01
sI01
tp1467
a((dp1468
S'suspect'
p1469
I01
sI01
tp1470
a((dp1471
S'child'
p1472
I01
sI01
tp1473
a((dp1474
S'porn'
p1475
I01
sI01
tp1476
a((dp1477
S'case'
p1478
I01
sI01
tp1479
a((dp1480
S'drop'
p1481
I01
sI01
tp1482
a((dp1483
S'runway'
p1484
I01
sI01
tp1485
a((dp1486
S'make'
p1487
I01
sI01
tp1488
a((dp1489
S'good'
p1490
I01
sI01
tp1491
a((dp1492
S'make'
p1493
I01
sI01
tp1494
a((dp1495
S'nice'
p1496
I01
sI01
tp1497
a((dp1498
S'magazine'
p1499
I01
sI00
tp1500
a((dp1501
S'list'
p1502
I01
sI00
tp1503
a((dp1504
S'women'
p1505
I01
sI00
tp1506
a((dp1507
S'abortion'
p1508
I01
sI00
tp1509
a((dp1510
S'fitnes'
p1511
I01
sI01
tp1512
a((dp1513
S'body'
p1514
I01
sI01
tp1515
a((dp1516
S'motion'
p1517
I01
sI01
tp1518
a((dp1519
S'clean'
p1520
I01
sI01
tp1521
a((dp1522
S'sober'
p1523
I01
sI01
tp1524
a((dp1525
S'resolution'
p1526
I01
sI01
tp1527
a((dp1528
S'approve'
p1529
I01
sI01
tp1530
a((dp1531
S'international'
p1532
I01
sI01
tp1533
a((dp1534
S'game'
p1535
I01
sI01
tp1536
a((dp1537
S'uk'
p1538
I01
sI01
tp1539
a((dp1540
S'character'
p1541
I01
sI01
tp1542
a((dp1543
S'boost'
p1544
I01
sI01
tp1545
a((dp1546
S'box'
p1547
I01
sI01
tp1548
a((dp1549
S'office'
p1550
I01
sI01
tp1551
a((dp1552
S'judge'
p1553
I01
sI01
tp1554
a((dp1555
S'dismiss'
p1556
I01
sI01
tp1557
a((dp1558
S'porn'
p1559
I01
sI01
tp1560
a((dp1561
S'case'
p1562
I01
sI01
tp1563
a((dp1564
S'tailor'
p1565
I01
sI01
tp1566
a((dp1567
S'housewive'
p1568
I01
sI01
tp1569
a((dp1570
S'busy'
p1571
I01
sI01
tp1572
a((dp1573
S'muslim'
p1574
I01
sI01
tp1575
a((dp1576
S'celebrate'
p1577
I01
sI01
tp1578
a((dp1579
S'nail'
p1580
I01
sI01
tp1581
a((dp1582
S'chalkboard'
p1583
I01
sI01
tp1584
a((dp1585
S'study'
p1586
I01
sI01
tp1587
a((dp1588
S'earn'
p1589
I01
sI01
tp1590
a((dp1591
S'ig'
p1592
I01
sI01
tp1593
a((dp1594
S'goal'
p1595
I01
sI01
tp1596
a((dp1597
S'delight'
p1598
I01
sI01
tp1599
a((dp1600
S'marathon'
p1601
I01
sI01
tp1602
a((dp1603
S'victory'
p1604
I01
sI01
tp1605
a((dp1606
S'come'
p1607
I01
sI01
tp1608
a((dp1609
S'heavy'
p1610
I01
sI01
tp1611
a((dp1612
S'cost'
p1613
I01
sI01
tp1614
a((dp1615
S'sweet'
p1616
I01
sI01
tp1617
a((dp1618
S'tune'
p1619
I01
sI01
tp1620
a((dp1621
S'anniversary'
p1622
I01
sI01
tp1623
a((dp1624
S'u'
p1625
I01
sI00
tp1626
a((dp1627
S'troop'
p1628
I01
sI00
tp1629
a((dp1630
S'kill'
p1631
I01
sI00
tp1632
a((dp1633
S'in'
p1634
I01
sI00
tp1635
a((dp1636
S'october'
p1637
I01
sI00
tp1638
a((dp1639
S'in'
p1640
I01
sI00
tp1641
a((dp1642
S'iraq'
p1643
I01
sI00
tp1644
a((dp1645
S'choke'
p1646
I01
sI00
tp1647
a((dp1648
S'grey'
p1649
I01
sI00
tp1650
a((dp1651
S'scuffle'
p1652
I01
sI00
tp1653
a((dp1654
S'israeli'
p1655
I01
sI00
tp1656
a((dp1657
S'bomblet'
p1658
I01
sI00
tp1659
a((dp1660
S'plague'
p1661
I01
sI00
tp1662
a((dp1663
S'lebanon'
p1664
I01
sI00
tp1665
a((dp1666
S'nasa'
p1667
I01
sI01
tp1668
a((dp1669
S'revisit'
p1670
I01
sI01
tp1671
a((dp1672
S'life'
p1673
I01
sI01
tp1674
a((dp1675
S'mar'
p1676
I01
sI01
tp1677
a((dp1678
S'question'
p1679
I01
sI01
tp1680
a((dp1681
S'item'
p1682
I01
sI01
tp1683
a((dp1684
S'snap'
p1685
I01
sI01
tp1686
a((dp1687
S'auction'
p1688
I01
sI01
tp1689
a((dp1690
S'silly'
p1691
I01
sI01
tp1692
a((dp1693
S'substantial'
p1694
I01
sI01
tp1695
a((dp1696
S'ask'
p1697
I01
sI00
tp1698
a((dp1699
S'dad'
p1700
I01
sI00
tp1701
a((dp1702
S'help'
p1703
I01
sI00
tp1704
a((dp1705
S'stop'
p1706
I01
sI00
tp1707
a((dp1708
S'husband'
p1709
I01
sI00
tp1710
a((dp1711
S'drink'
p1712
I01
sI00
tp1713
a((dp1714
S'amish'
p1715
I01
sI00
tp1716
a((dp1717
S'schoolhouse'
p1718
I01
sI00
tp1719
a((dp1720
S'tear'
p1721
I01
sI00
tp1722
a((dp1723
S'question'
p1724
I01
sI00
tp1725
a((dp1726
S'credit'
p1727
I01
sI00
tp1728
a((dp1729
S'card'
p1730
I01
sI00
tp1731
a((dp1732
S'safety'
p1733
I01
sI00
tp1734
a((dp1735
S'alonso'
p1736
I01
sI01
tp1737
a((dp1738
S'happy'
p1739
I01
sI01
tp1740
a((dp1741
S'retire'
p1742
I01
sI01
tp1743
a((dp1744
S'three'
p1745
I01
sI01
tp1746
a((dp1747
S'title'
p1748
I01
sI01
tp1749
a((dp1750
S'three'
p1751
I01
sI01
tp1752
a((dp1753
S'driver'
p1754
I01
sI01
tp1755
a((dp1756
S'reason'
p1757
I01
sI01
tp1758
a((dp1759
S'proud'
p1760
I01
sI01
tp1761
a((dp1762
S'brazil'
p1763
I01
sI01
tp1764
a((dp1765
S'alaska'
p1766
I01
sI00
tp1767
a((dp1768
S'town'
p1769
I01
sI00
tp1770
a((dp1771
S'cut'
p1772
I01
sI00
tp1773
a((dp1774
S'rest'
p1775
I01
sI00
tp1776
a((dp1777
S'state'
p1778
I01
sI00
tp1779
a((dp1780
S'flood'
p1781
I01
sI00
tp1782
a((dp1783
S'hungary'
p1784
I01
sI01
tp1785
a((dp1786
S'police'
p1787
I01
sI01
tp1788
a((dp1789
S'tackle'
p1790
I01
sI01
tp1791
a((dp1792
S'violent'
p1793
I01
sI01
tp1794
a((dp1795
S'iran'
p1796
I01
sI01
tp1797
a((dp1798
S'president'
p1799
I01
sI01
tp1800
a((dp1801
S'urge'
p1802
I01
sI01
tp1803
a((dp1804
S'higher'
p1805
I01
sI01
tp1806
a((dp1807
S'birth'
p1808
I01
sI01
tp1809
a((dp1810
S'rate'
p1811
I01
sI01
tp1812
a((dp1813
S'russian'
p1814
I01
sI00
tp1815
a((dp1816
S'ship'
p1817
I01
sI00
tp1818
a((dp1819
S'sink'
p1820
I01
sI00
tp1821
a((dp1822
S'18'
p1823
I01
sI00
tp1824
a((dp1825
S'member'
p1826
I01
sI00
tp1827
a((dp1828
S'crew'
p1829
I01
sI00
tp1830
a((dp1831
S'miss'
p1832
I01
sI00
tp1833
a((dp1834
S'women'
p1835
I01
sI00
tp1836
a((dp1837
S'face'
p1838
I01
sI00
tp1839
a((dp1840
S'greatest'
p1841
I01
sI00
tp1842
a((dp1843
S'threat'
p1844
I01
sI00
tp1845
a((dp1846
S'violence'
p1847
I01
sI00
tp1848
a((dp1849
S'home'
p1850
I01
sI00
tp1851
a((dp1852
S'study'
p1853
I01
sI00
tp1854
a((dp1855
S'find'
p1856
I01
sI00
tp1857
a((dp1858
S'kurdish'
p1859
I01
sI00
tp1860
a((dp1861
S'lawmaker'
p1862
I01
sI00
tp1863
a((dp1864
S'kill'
p1865
I01
sI00
tp1866
a((dp1867
S'attack'
p1868
I01
sI00
tp1869
a((dp1870
S'baghdad'
p1871
I01
sI00
tp1872
a((dp1873
S'iraqi'
p1874
I01
sI00
tp1875
a((dp1876
S'journalist'
p1877
I01
sI00
tp1878
a((dp1879
S'add'
p1880
I01
sI00
tp1881
a((dp1882
S'law'
p1883
I01
sI00
tp1884
a((dp1885
S'list'
p1886
I01
sI00
tp1887
a((dp1888
S'danger'
p1889
I01
sI00
tp1890
a((dp1891
S'routine'
p1892
I01
sI00
tp1893
a((dp1894
S'mission'
p1895
I01
sI00
tp1896
a((dp1897
S'turn'
p1898
I01
sI00
tp1899
a((dp1900
S'hunt'
p1901
I01
sI00
tp1902
a((dp1903
S'miss'
p1904
I01
sI00
tp1905
a((dp1906
S'comrade'
p1907
I01
sI00
tp1908
a((dp1909
S'equipment'
p1910
I01
sI00
tp1911
a((dp1912
S'plane'
p1913
I01
sI00
tp1914
a((dp1915
S'brazil'
p1916
I01
sI00
tp1917
a((dp1918
S'collision'
p1919
I01
sI00
tp1920
a((dp1921
S'may'
p1922
I01
sI00
tp1923
a((dp1924
S'have'
p1925
I01
sI00
tp1926
a((dp1927
S'be'
p1928
I01
sI00
tp1929
a((dp1930
S'faulty'
p1931
I01
sI00
tp1932
a((dp1933
S'an'
p1934
I01
sI01
tp1935
a((dp1936
S'elephant'
p1937
I01
sI01
tp1938
a((dp1939
S'hacker'
p1940
I01
sI01
tp1941
a((dp1942
S'unlock'
p1943
I01
sI01
tp1944
a((dp1945
S'apple'
p1946
I01
sI01
tp1947
a((dp1948
S'music'
p1949
I01
sI01
tp1950
a((dp1951
S'download'
p1952
I01
sI01
tp1953
a((dp1954
S'protection'
p1955
I01
sI01
tp1956
a((dp1957
S'grow'
p1958
I01
sI00
tp1959
a((dp1960
S'unarm'
p1961
I01
sI00
tp1962
a((dp1963
S'battalion'
p1964
I01
sI00
tp1965
a((dp1966
S'qaeda'
p1967
I01
sI00
tp1968
a((dp1969
S'army'
p1970
I01
sI00
tp1971
a((dp1972
S'be'
p1973
I01
sI00
tp1974
a((dp1975
S'used'
p1976
I01
sI00
tp1977
a((dp1978
S'internet'
p1979
I01
sI00
tp1980
a((dp1981
S'get'
p1982
I01
sI00
tp1983
a((dp1984
S'message'
p1985
I01
sI00
tp1986
a((dp1987
S'out'
p1988
I01
sI00
tp1989
a((dp1990
S'presto'
p1991
I01
sI01
tp1992
a((dp1993
S'he'
p1994
I01
sI01
tp1995
a((dp1996
S'batman'
p1997
I01
sI01
tp1998
a((dp1999
S'magic'
p2000
I01
sI01
tp2001
a((dp2002
S'man'
p2003
I01
sI01
tp2004
a((dp2005
S'reid'
p2006
I01
sI00
tp2007
a((dp2008
S'land'
p2009
I01
sI00
tp2010
a((dp2011
S'deal'
p2012
I01
sI00
tp2013
a((dp2014
S'scrutiny'
p2015
I01
sI00
tp2016
a((dp2017
S'britain'
p2018
I01
sI00
tp2019
a((dp2020
S'limit'
p2021
I01
sI00
tp2022
a((dp2023
S'worker'
p2024
I01
sI00
tp2025
a((dp2026
S'romania'
p2027
I01
sI00
tp2028
a((dp2029
S'bulgaria'
p2030
I01
sI00
tp2031
a((dp2032
S'new'
p2033
I01
sI00
tp2034
a((dp2035
S'indonesia'
p2036
I01
sI00
tp2037
a((dp2038
S'calamity'
p2039
I01
sI00
tp2040
a((dp2041
S'mud'
p2042
I01
sI00
tp2043
a((dp2044
S'bath'
p2045
I01
sI00
tp2046
a((dp2047
S'be'
p2048
I01
sI00
tp2049
a((dp2050
S'man'
p2051
I01
sI00
tp2052
a((dp2053
S'make'
p2054
I01
sI00
tp2055
a((dp2056
S'injure'
p2057
I01
sI01
tp2058
a((dp2059
S'marathon'
p2060
I01
sI01
tp2061
a((dp2062
S'winner'
p2063
I01
sI01
tp2064
a((dp2065
S'leave'
p2066
I01
sI01
tp2067
a((dp2068
S'hospital'
p2069
I01
sI01
tp2070
a((dp2071
S'bad'
p2072
I01
sI01
tp2073
a((dp2074
S'reason'
p2075
I01
sI01
tp2076
a((dp2077
S'good'
p2078
I01
sI01
tp2079
a((dp2080
S'slay'
p2081
I01
sI00
tp2082
a((dp2083
S'amish'
p2084
I01
sI00
tp2085
a((dp2086
S'girl'
p2087
I01
sI00
tp2088
a((dp2089
S'layer'
p2090
I01
sI00
tp2091
a((dp2092
S'rest'
p2093
I01
sI00
tp2094
a((dp2095
S'toddler'
p2096
I01
sI00
tp2097
a((dp2098
S'die'
p2099
I01
sI00
tp2100
a((dp2101
S'taint'
p2102
I01
sI00
tp2103
a((dp2104
S'spinach'
p2105
I01
sI00
tp2106
a((dp2107
S'student'
p2108
I01
sI00
tp2109
a((dp2110
S'lose'
p2111
I01
sI00
tp2112
a((dp2113
S'rite'
p2114
I01
sI00
tp2115
a((dp2116
S'passage'
p2117
I01
sI00
tp2118
a((dp2119
S'no'
p2120
I01
sI00
tp2121
a((dp2122
S'evidence'
p2123
I01
sI00
tp2124
a((dp2125
S'ice'
p2126
I01
sI00
tp2127
a((dp2128
S'reserve'
p2129
I01
sI00
tp2130
a((dp2131
S'moon'
p2132
I01
sI00
tp2133
a((dp2134
S'israel'
p2135
I01
sI00
tp2136
a((dp2137
S'insist'
p2138
I01
sI00
tp2139
a((dp2140
S'lebanon'
p2141
I01
sI00
tp2142
a((dp2143
S'overflight'
p2144
I01
sI00
tp2145
a((dp2146
S'managua'
p2147
I01
sI00
tp2148
a((dp2149
S'journal'
p2150
I01
sI00
tp2151
a((dp2152
S'hold'
p2153
I01
sI00
tp2154
a((dp2155
S'margarita'
p2156
I01
sI00
tp2157
a((dp2158
S'nicaragua'
p2159
I01
sI00
tp2160
a((dp2161
S'have'
p2162
I01
sI00
tp2163
a((dp2164
S'el'
p2165
I01
sI00
tp2166
a((dp2167
S'apple'
p2168
I01
sI01
tp2169
a((dp2170
S'set'
p2171
I01
sI01
tp2172
a((dp2173
S'massive'
p2174
I01
sI01
tp2175
a((dp2176
S'market'
p2177
I01
sI01
tp2178
a((dp2179
S'gain'
p2180
I01
sI01
tp2181
a((dp2182
S'tom'
p2183
I01
sI01
tp2184
a((dp2185
S'cruise'
p2186
I01
sI01
tp2187
a((dp2188
S'holme'
p2189
I01
sI01
tp2190
a((dp2191
S'set'
p2192
I01
sI01
tp2193
a((dp2194
S'wed'
p2195
I01
sI01
tp2196
a((dp2197
S'date'
p2198
I01
sI01
tp2199
a((dp2200
S'rice'
p2201
I01
sI00
tp2202
a((dp2203
S'baghdad'
p2204
I01
sI00
tp2205
a((dp2206
S'insist'
p2207
I01
sI00
tp2208
a((dp2209
S'iraqi'
p2210
I01
sI00
tp2211
a((dp2212
S'be'
p2213
I01
sI00
tp2214
a((dp2215
S'pretty'
p2216
I01
sI01
tp2217
a((dp2218
S'kind'
p2219
I01
sI01
tp2220
a((dp2221
S'bully'
p2222
I01
sI01
tp2223
a((dp2224
S'speaker'
p2225
I01
sI00
tp2226
a((dp2227
S'testify'
p2228
I01
sI00
tp2229
a((dp2230
S'panel'
p2231
I01
sI00
tp2232
a((dp2233
S'probe'
p2234
I01
sI00
tp2235
a((dp2236
S'sex'
p2237
I01
sI00
tp2238
a((dp2239
S'scandal'
p2240
I01
sI00
tp2241
a((dp2242
S'teen'
p2243
I01
sI01
tp2244
a((dp2245
S'repellent'
p2246
I01
sI01
tp2247
a((dp2248
S'inventor'
p2249
I01
sI01
tp2250
a((dp2251
S'win'
p2252
I01
sI01
tp2253
a((dp2254
S'infamou'
p2255
I01
sI01
tp2256
a((dp2257
S'prize'
p2258
I01
sI01
tp2259
a((dp2260
S'bread'
p2261
I01
sI00
tp2262
a((dp2263
S'heavy'
p2264
I01
sI00
tp2265
a((dp2266
S'diet'
p2267
I01
sI00
tp2268
a((dp2269
S'link'
p2270
I01
sI00
tp2271
a((dp2272
S'kidney'
p2273
I01
sI00
tp2274
a((dp2275
S'cancer'
p2276
I01
sI00
tp2277
a((dp2278
S'heavy'
p2279
I01
sI00
tp2280
a((dp2281
S'use'
p2282
I01
sI00
tp2283
a((dp2284
S'mobile'
p2285
I01
sI00
tp2286
a((dp2287
S'phone'
p2288
I01
sI00
tp2289
a((dp2290
S'make'
p2291
I01
sI00
tp2292
a((dp2293
S'men'
p2294
I01
sI00
tp2295
a((dp2296
S'infertile'
p2297
I01
sI00
tp2298
a((dp2299
S'scientist'
p2300
I01
sI00
tp2301
a((dp2302
S'say'
p2303
I01
sI00
tp2304
a((dp2305
S'anti'
p2306
I01
sI00
tp2307
a((dp2308
S'attack'
p2309
I01
sI00
tp2310
a((dp2311
S'video'
p2312
I01
sI00
tp2313
a((dp2314
S'spread'
p2315
I01
sI00
tp2316
a((dp2317
S'internet'
p2318
I01
sI00
tp2319
a((dp2320
S'stanford'
p2321
I01
sI00
tp2322
a((dp2323
S'study'
p2324
I01
sI00
tp2325
a((dp2326
S'warn'
p2327
I01
sI00
tp2328
a((dp2329
S'internet'
p2330
I01
sI00
tp2331
a((dp2332
S'addiction'
p2333
I01
sI00
tp2334
a((dp2335
S'warn'
p2336
I01
sI00
tp2337
a((dp2338
S'north'
p2339
I01
sI00
tp2340
a((dp2341
S'korean'
p2342
I01
sI00
tp2343
a((dp2344
S'about'
p2345
I01
sI00
tp2346
a((dp2347
S'nuclear'
p2348
I01
sI00
tp2349
a((dp2350
S'test'
p2351
I01
sI00
tp2352
a((dp2353
S'poison'
p2354
I01
sI00
tp2355
a((dp2356
S'pill'
p2357
I01
sI00
tp2358
a((dp2359
S'swallow'
p2360
I01
sI00
tp2361
a((dp2362
S'hawk'
p2363
I01
sI00
tp2364
a((dp2365
S'hurt'
p2366
I01
sI00
tp2367
a((dp2368
S'after'
p2369
I01
sI00
tp2370
a((dp2371
S'los'
p2372
I01
sI00
tp2373
a((dp2374
S'dad'
p2375
I01
sI00
tp2376
a((dp2377
S'lock'
p2378
I01
sI00
tp2379
a((dp2380
S'son'
p2381
I01
sI00
tp2382
a((dp2383
S'watch'
p2384
I01
sI00
tp2385
a((dp2386
S'tv'
p2387
I01
sI00
tp2388
a((dp2389
S'police'
p2390
I01
sI00
tp2391
a((dp2392
S'say'
p2393
I01
sI00
tp2394
a((dp2395
S'celebrity'
p2396
I01
sI01
tp2397
a((dp2398
S'protest'
p2399
I01
sI01
tp2400
a((dp2401
S'gas'
p2402
I01
sI01
tp2403
a((dp2404
S'facility'
p2405
I01
sI01
tp2406
a((dp2407
S'college'
p2408
I01
sI00
tp2409
a((dp2410
S'tuition'
p2411
I01
sI00
tp2412
a((dp2413
S'continue'
p2414
I01
sI00
tp2415
a((dp2416
S'climb'
p2417
I01
sI00
tp2418
a((dp2419
S'man'
p2420
I01
sI01
tp2421
a((dp2422
S'inspire'
p2423
I01
sI01
tp2424
a((dp2425
S'giant'
p2426
I01
sI01
tp2427
a((dp2428
S'victory'
p2429
I01
sI01
tp2430
a((dp2431
S'dalla'
p2432
I01
sI01
tp2433
a((dp2434
S'game'
p2435
I01
sI01
tp2436
a((dp2437
S'london'
p2438
I01
sI01
tp2439
a((dp2440
S'exhibition'
p2441
I01
sI01
tp2442
a((dp2443
S'celebrate'
p2444
I01
sI01
tp2445
a((dp2446
S'history'
p2447
I01
sI01
tp2448
a((dp2449
S'video'
p2450
I01
sI01
tp2451
a((dp2452
S'game'
p2453
I01
sI01
tp2454
a((dp2455
S'cook'
p2456
I01
sI01
tp2457
a((dp2458
S'define'
p2459
I01
sI01
tp2460
a((dp2461
S'jew'
p2462
I01
sI01
tp2463
a((dp2464
S'iraqi'
p2465
I01
sI00
tp2466
a((dp2467
S'link'
p2468
I01
sI00
tp2469
a((dp2470
S'sunni'
p2471
I01
sI00
tp2472
a((dp2473
S'bloc'
p2474
I01
sI00
tp2475
a((dp2476
S'be'
p2477
I01
sI00
tp2478
a((dp2479
S'hold'
p2480
I01
sI00
tp2481
a((dp2482
S'plot'
p2483
I01
sI00
tp2484
a((dp2485
S'military'
p2486
I01
sI00
tp2487
a((dp2488
S'say'
p2489
I01
sI00
tp2490
a((dp2491
S'arrogant'
p2492
I01
sI01
tp2493
a((dp2494
S'stupid'
p2495
I01
sI01
tp2496
a((dp2497
S'iraq'
p2498
I01
sI01
tp2499
a((dp2500
S'say'
p2501
I01
sI01
tp2502
a((dp2503
S'u'
p2504
I01
sI01
tp2505
a((dp2506
S'diplomat'
p2507
I01
sI01
tp2508
a((dp2509
S'cleric'
p2510
I01
sI00
tp2511
a((dp2512
S'say'
p2513
I01
sI00
tp2514
a((dp2515
S'lose'
p2516
I01
sI00
tp2517
a((dp2518
S'rein'
p2519
I01
sI00
tp2520
a((dp2521
S'over'
p2522
I01
sI00
tp2523
a((dp2524
S'part'
p2525
I01
sI00
tp2526
a((dp2527
S'iraqi'
p2528
I01
sI00
tp2529
a((dp2530
S'militia'
p2531
I01
sI00
tp2532
a((dp2533
S'senator'
p2534
I01
sI01
tp2535
a((dp2536
S'say'
p2537
I01
sI01
tp2538
a((dp2539
S'rethink'
p2540
I01
sI01
tp2541
a((dp2542
S'iraq'
p2543
I01
sI01
tp2544
a((dp2545
S'strategy'
p2546
I01
sI01
tp2547
a((dp2548
S'prevent'
p2549
I01
sI00
tp2550
a((dp2551
S'iraq'
p2552
I01
sI00
tp2553
a((dp2554
S'get'
p2555
I01
sI00
tp2556
a((dp2557
S'even'
p2558
I01
sI00
tp2559
a((dp2560
S'worse'
p2561
I01
sI00
tp2562
a((dp2563
S'military'
p2564
I01
sI01
tp2565
a((dp2566
S'official'
p2567
I01
sI01
tp2568
a((dp2569
S'add'
p2570
I01
sI01
tp2571
a((dp2572
S'criticism'
p2573
I01
sI01
tp2574
a((dp2575
S'iraq'
p2576
I01
sI01
tp2577
a((dp2578
S'government'
p2579
I01
sI01
tp2580
a((dp2581
S'10000'
p2582
I01
sI01
tp2583
a((dp2584
S'poetry'
p2585
I01
sI01
tp2586
a((dp2587
S'prize'
p2588
I01
sI01
tp2589
a((dp2590
S'award'
p2591
I01
sI01
tp2592
a((dp2593
S'stewart'
p2594
I01
sI00
tp2595
a((dp2596
S'mock'
p2597
I01
sI00
tp2598
a((dp2599
S'benefit'
p2600
I01
sI00
tp2601
a((dp2602
S'ottawa'
p2603
I01
sI00
tp2604
a((dp2605
S'must'
p2606
I01
sI00
tp2607
a((dp2608
S'redefine'
p2609
I01
sI00
tp2610
a((dp2611
S'terror'
p2612
I01
sI00
tp2613
a((dp2614
S'madonna'
p2615
I01
sI01
tp2616
a((dp2617
S'file'
p2618
I01
sI01
tp2619
a((dp2620
S'adoption'
p2621
I01
sI01
tp2622
a((dp2623
S'paper'
p2624
I01
sI01
tp2625
a((dp2626
S'malawi'
p2627
I01
sI01
tp2628
a((dp2629
S'amish'
p2630
I01
sI00
tp2631
a((dp2632
S'killing'
p2633
I01
sI00
tp2634
a((dp2635
S'school'
p2636
I01
sI00
tp2637
a((dp2638
S'demolish'
p2639
I01
sI00
tp2640
a((dp2641
S'leader'
p2642
I01
sI01
tp2643
a((dp2644
S'million'
p2645
I01
sI01
tp2646
a((dp2647
S'land'
p2648
I01
sI01
tp2649
a((dp2650
S'deal'
p2651
I01
sI01
tp2652
a((dp2653
S'scrutiny'
p2654
I01
sI01
tp2655
a((dp2656
S'cultural'
p2657
I01
sI01
tp2658
a((dp2659
S'revolutionary'
p2660
I01
sI01
tp2661
a((dp2662
S'ipod'
p2663
I01
sI01
tp2664
a((dp2665
S'five'
p2666
I01
sI01
tp2667
a((dp2668
S'scientist'
p2669
I01
sI01
tp2670
a((dp2671
S'discover'
p2672
I01
sI01
tp2673
a((dp2674
S'miracle'
p2675
I01
sI01
tp2676
a((dp2677
S'depth'
p2678
I01
sI01
tp2679
a((dp2680
S'apologise'
p2681
I01
sI00
tp2682
a((dp2683
S'global'
p2684
I01
sI00
tp2685
a((dp2686
S'battery'
p2687
I01
sI00
tp2688
a((dp2689
S'recall'
p2690
I01
sI00
tp2691
a((dp2692
S'pit'
p2693
I01
sI00
tp2694
a((dp2695
S'bull'
p2696
I01
sI00
tp2697
a((dp2698
S'jump'
p2699
I01
sI00
tp2700
a((dp2701
S'miniature'
p2702
I01
sI00
tp2703
a((dp2704
S'pony'
p2705
I01
sI00
tp2706
a((dp2707
S'leave'
p2708
I01
sI00
tp2709
a((dp2710
S'bloody'
p2711
I01
sI00
tp2712
a((dp2713
S'nasa'
p2714
I01
sI01
tp2715
a((dp2716
S'spacecraft'
p2717
I01
sI01
tp2718
a((dp2719
S'measure'
p2720
I01
sI01
tp2721
a((dp2722
S'sun'
p2723
I01
sI01
tp2724
a((dp2725
S'budapest'
p2726
I01
sI01
tp2727
a((dp2728
S'calm'
p2729
I01
sI01
tp2730
a((dp2731
S'night'
p2732
I01
sI01
tp2733
a((dp2734
S'violent'
p2735
I01
sI01
tp2736
a((dp2737
S'protest'
p2738
I01
sI01
tp2739
a((dp2740
S'uk'
p2741
I01
sI00
tp2742
a((dp2743
S'announce'
p2744
I01
sI00
tp2745
a((dp2746
S'immigration'
p2747
I01
sI00
tp2748
a((dp2749
S'restriction'
p2750
I01
sI00
tp2751
a((dp2752
S'kentucky'
p2753
I01
sI01
tp2754
a((dp2755
S'seek'
p2756
I01
sI01
tp2757
a((dp2758
S'alcohol'
p2759
I01
sI01
tp2760
a((dp2761
S'huff'
p2762
I01
sI01
tp2763
a((dp2764
S'ban'
p2765
I01
sI01
tp2766
a((dp2767
S'photographer'
p2768
I01
sI01
tp2769
a((dp2770
S'kidnap'
p2771
I01
sI01
tp2772
a((dp2773
S'condemn'
p2774
I01
sI01
tp2775
a((dp2776
S'force'
p2777
I01
sI01
tp2778
a((dp2779
S'be'
p2780
I01
sI01
tp2781
a((dp2782
S'tread'
p2783
I01
sI01
tp2784
a((dp2785
S'lightly'
p2786
I01
sI01
tp2787
a((dp2788
S'lebanese'
p2789
I01
sI01
tp2790
a((dp2791
S'soil'
p2792
I01
sI01
tp2793
a((dp2794
S'hit'
p2795
I01
sI01
tp2796
a((dp2797
S'new'
p2798
I01
sI01
tp2799
a((dp2800
S'record'
p2801
I01
sI01
tp2802
a((dp2803
S'eye'
p2804
I01
sI01
tp2805
a((dp2806
S'madonna'
p2807
I01
sI01
tp2808
a((dp2809
S'file'
p2810
I01
sI01
tp2811
a((dp2812
S'adoption'
p2813
I01
sI01
tp2814
a((dp2815
S'paper'
p2816
I01
sI01
tp2817
a((dp2818
S'unite'
p2819
I01
sI01
tp2820
a((dp2821
S'find'
p2822
I01
sI01
tp2823
a((dp2824
S'good'
p2825
I01
sI01
tp2826
a((dp2827
S'connection'
p2828
I01
sI01
tp2829
a((dp2830
S'win'
p2831
I01
sI01
tp2832
a((dp2833
S'sorry'
p2834
I01
sI00
tp2835
a((dp2836
S'scandal'
p2837
I01
sI00
tp2838
a((dp2839
S'quit'
p2840
I01
sI00
tp2841
a((dp2842
S'vegetable'
p2843
I01
sI01
tp2844
a((dp2845
S'may'
p2846
I01
sI01
tp2847
a((dp2848
S'boost'
p2849
I01
sI01
tp2850
a((dp2851
S'brain'
p2852
I01
sI01
tp2853
a((dp2854
S'power'
p2855
I01
sI01
tp2856
a((dp2857
S'older'
p2858
I01
sI01
tp2859
a((dp2860
S'adult'
p2861
I01
sI01
tp2862
a((dp2863
S'kidnap'
p2864
I01
sI01
tp2865
a((dp2866
S'photographer'
p2867
I01
sI01
tp2868
a((dp2869
S'free'
p2870
I01
sI01
tp2871
a((dp2872
S'gaza'
p2873
I01
sI01
tp2874
a((dp2875
S'dress'
p2876
I01
sI01
tp2877
a((dp2878
S'car'
p2879
I01
sI01
tp2880
a((dp2881
S'bed'
p2882
I01
sI01
tp2883
a((dp2884
S'new'
p2885
I01
sI01
tp2886
a((dp2887
S'owner'
p2888
I01
sI01
tp2889
a((dp2890
S'commentary'
p2891
I01
sI01
tp2892
a((dp2893
S'minutemen'
p2894
I01
sI01
tp2895
a((dp2896
S'right'
p2897
I01
sI01
tp2898
a((dp2899
S'idiotic'
p2900
I01
sI01
tp2901
a((dp2902
S'pair'
p2903
I01
sI01
tp2904
a((dp2905
S'satellite'
p2906
I01
sI01
tp2907
a((dp2908
S'will'
p2909
I01
sI01
tp2910
a((dp2911
S'document'
p2912
I01
sI01
tp2913
a((dp2914
S'sun'
p2915
I01
sI01
tp2916
a((dp2917
S'china'
p2918
I01
sI01
tp2919
a((dp2920
S'successfully'
p2921
I01
sI01
tp2922
a((dp2923
S'launch'
p2924
I01
sI01
tp2925
a((dp2926
S'two'
p2927
I01
sI01
tp2928
a((dp2929
S'satellite'
p2930
I01
sI01
tp2931
a((dp2932
S'report'
p2933
I01
sI01
tp2934
a((dp2935
S'criticise'
p2936
I01
sI01
tp2937
a((dp2938
S'u'
p2939
I01
sI01
tp2940
a((dp2941
S'press'
p2942
I01
sI01
tp2943
a((dp2944
S'freedom'
p2945
I01
sI01
tp2946
a((dp2947
S'man'
p2948
I01
sI00
tp2949
a((dp2950
S'admit'
p2951
I01
sI00
tp2952
a((dp2953
S'uk'
p2954
I01
sI00
tp2955
a((dp2956
S'u'
p2957
I01
sI00
tp2958
a((dp2959
S'terror'
p2960
I01
sI00
tp2961
a((dp2962
S'bomb'
p2963
I01
sI00
tp2964
a((dp2965
S'plot'
p2966
I01
sI00
tp2967
a((dp2968
S'russian'
p2969
I01
sI00
tp2970
a((dp2971
S'ship'
p2972
I01
sI00
tp2973
a((dp2974
S'sink'
p2975
I01
sI00
tp2976
a((dp2977
S'pacific'
p2978
I01
sI00
tp2979
a((dp2980
S'tropical'
p2981
I01
sI00
tp2982
a((dp2983
S'storm'
p2984
I01
sI00
tp2985
a((dp2986
S'paul'
p2987
I01
sI00
tp2988
a((dp2989
S'outer'
p2990
I01
sI00
tp2991
a((dp2992
S'band'
p2993
I01
sI00
tp2994
a((dp2995
S'hit'
p2996
I01
sI00
tp2997
a((dp2998
S'mexico'
p2999
I01
sI00
tp3000
a((dp3001
S'california'
p3002
I01
sI00
tp3003
a((dp3004
S'probe'
p3005
I01
sI01
tp3006
a((dp3007
S'way'
p3008
I01
sI01
tp3009
a((dp3010
S'yankee'
p3011
I01
sI01
tp3012
a((dp3013
S'crash'
p3014
I01
sI01
tp3015
a((dp3016
S'yankee'
p3017
I01
sI00
tp3018
a((dp3019
S'die'
p3020
I01
sI00
tp3021
a((dp3022
S'plane'
p3023
I01
sI00
tp3024
a((dp3025
S'crash'
p3026
I01
sI00
tp3027
a((dp3028
S'official'
p3029
I01
sI00
tp3030
a((dp3031
S'say'
p3032
I01
sI00
tp3033
a((dp3034
S'brazil'
p3035
I01
sI00
tp3036
a((dp3037
S'air'
p3038
I01
sI00
tp3039
a((dp3040
S'force'
p3041
I01
sI00
tp3042
a((dp3043
S'cite'
p3044
I01
sI00
tp3045
a((dp3046
S'fault'
p3047
I01
sI00
tp3048
a((dp3049
S'confusion'
p3050
I01
sI00
tp3051
a((dp3052
S'fatal'
p3053
I01
sI00
tp3054
a((dp3055
S'crash'
p3056
I01
sI00
tp3057
a((dp3058
S'flu'
p3059
I01
sI01
tp3060
a((dp3061
S'vaccine'
p3062
I01
sI01
tp3063
a((dp3064
S'appear'
p3065
I01
sI01
tp3066
a((dp3067
S'safe'
p3068
I01
sI01
tp3069
a((dp3070
S'young'
p3071
I01
sI01
tp3072
a((dp3073
S'children'
p3074
I01
sI01
tp3075
a((dp3076
S'immigrant'
p3077
I01
sI01
tp3078
a((dp3079
S'french'
p3080
I01
sI01
tp3081
a((dp3082
S'reach'
p3083
I01
sI01
tp3084
a((dp3085
S'deal'
p3086
I01
sI01
tp3087
a((dp3088
S'standoff'
p3089
I01
sI01
tp3090
a((dp3091
S'ex'
p3092
I01
sI00
tp3093
a((dp3094
S'virginia'
p3095
I01
sI00
tp3096
a((dp3097
S'run'
p3098
I01
sI00
tp3099
a((dp3100
S'president'
p3101
I01
sI00
tp3102
a((dp3103
S'student'
p3104
I01
sI00
tp3105
a((dp3106
S'start'
p3107
I01
sI00
tp3108
a((dp3109
S'white'
p3110
I01
sI00
tp3111
a((dp3112
S'men'
p3113
I01
sI00
tp3114
a((dp3115
S'club'
p3116
I01
sI00
tp3117
a((dp3118
S'campu'
p3119
I01
sI00
tp3120
a((dp3121
S'on'
p3122
I01
sI00
tp3123
a((dp3124
S'educate'
p3125
I01
sI00
tp3126
a((dp3127
S'sex'
p3128
I01
sI00
tp3129
a((dp3130
S'separately'
p3131
I01
sI00
tp3132
a((dp3133
S'french'
p3134
I01
sI00
tp3135
a((dp3136
S'suburb'
p3137
I01
sI00
tp3138
a((dp3139
S'riot'
p3140
I01
sI00
tp3141
a((dp3142
S'resume'
p3143
I01
sI00
tp3144
a((dp3145
S'sheen'
p3146
I01
sI01
tp3147
a((dp3148
S'become'
p3149
I01
sI01
tp3150
a((dp3151
S'highest'
p3152
I01
sI01
tp3153
a((dp3154
S'paid'
p3155
I01
sI01
tp3156
a((dp3157
S'sitcom'
p3158
I01
sI01
tp3159
a((dp3160
S'star'
p3161
I01
sI01
tp3162
a((dp3163
S'condemn'
p3164
I01
sI00
tp3165
a((dp3166
S'israeli'
p3167
I01
sI00
tp3168
a((dp3169
S'massacre'
p3170
I01
sI00
tp3171
a((dp3172
S'northern'
p3173
I01
sI00
tp3174
a((dp3175
S'gaza'
p3176
I01
sI00
tp3177
a((dp3178
S'strip'
p3179
I01
sI00
tp3180
a((dp3181
S'an'
p3182
I01
sI01
tp3183
a((dp3184
S'old'
p3185
I01
sI01
tp3186
a((dp3187
S'letter'
p3188
I01
sI01
tp3189
a((dp3190
S'cast'
p3191
I01
sI01
tp3192
a((dp3193
S'doubt'
p3194
I01
sI01
tp3195
a((dp3196
S'iran'
p3197
I01
sI01
tp3198
a((dp3199
S'goal'
p3200
I01
sI01
tp3201
a((dp3202
S'uranium'
p3203
I01
sI01
tp3204
a((dp3205
S'italy'
p3206
I01
sI00
tp3207
a((dp3208
S'drop'
p3209
I01
sI00
tp3210
a((dp3211
S'sicily'
p3212
I01
sI00
tp3213
a((dp3214
S'bridge'
p3215
I01
sI00
tp3216
a((dp3217
S'plan'
p3218
I01
sI00
tp3219
a((dp3220
S'ashton'
p3221
I01
sI01
tp3222
a((dp3223
S'tell'
p3224
I01
sI01
tp3225
a((dp3226
S'secret'
p3227
I01
sI01
tp3228
a((dp3229
S'porn'
p3230
I01
sI01
tp3231
a((dp3232
S'star'
p3233
I01
sI01
tp3234
a((dp3235
S'candidate'
p3236
I01
sI01
tp3237
a((dp3238
S'campaign'
p3239
I01
sI01
tp3240
a((dp3241
S'campu'
p3242
I01
sI01
tp3243
a((dp3244
S'diplomat'
p3245
I01
sI01
tp3246
a((dp3247
S'acknowledge'
p3248
I01
sI01
tp3249
a((dp3250
S'u'
p3251
I01
sI01
tp3252
a((dp3253
S'arrogance'
p3254
I01
sI01
tp3255
a((dp3256
S'iraq'
p3257
I01
sI01
tp3258
a((dp3259
S'girl'
p3260
I01
sI01
tp3261
a((dp3262
S'left'
p3263
I01
sI01
tp3264
a((dp3265
S'comatose'
p3266
I01
sI01
tp3267
a((dp3268
S'dental'
p3269
I01
sI01
tp3270
a((dp3271
S'visit'
p3272
I01
sI01
tp3273
a((dp3274
S'die'
p3275
I01
sI01
tp3276
a((dp3277
S'ukraine'
p3278
I01
sI00
tp3279
a((dp3280
S'gas'
p3281
I01
sI00
tp3282
a((dp3283
S'deal'
p3284
I01
sI00
tp3285
a((dp3286
S'mar'
p3287
I01
sI00
tp3288
a((dp3289
S'fear'
p3290
I01
sI00
tp3291
a((dp3292
S'three'
p3293
I01
sI01
tp3294
a((dp3295
S'find'
p3296
I01
sI01
tp3297
a((dp3298
S'alive'
p3299
I01
sI01
tp3300
a((dp3301
S'miss'
p3302
I01
sI01
tp3303
a((dp3304
S'russian'
p3305
I01
sI01
tp3306
a((dp3307
S'ship'
p3308
I01
sI01
tp3309
a((dp3310
S'report'
p3311
I01
sI01
tp3312
a((dp3313
S'auction'
p3314
I01
sI01
tp3315
a((dp3316
S'fetch'
p3317
I01
sI01
tp3318
a((dp3319
S'double'
p3320
I01
sI01
tp3321
a((dp3322
S'sale'
p3323
I01
sI01
tp3324
a((dp3325
S'estimate'
p3326
I01
sI01
tp3327
a((dp3328
S'deep'
p3329
I01
sI00
tp3330
a((dp3331
S'regret'
p3332
I01
sI00
tp3333
a((dp3334
S'ex'
p3335
I01
sI00
tp3336
a((dp3337
S'hp'
p3338
I01
sI00
tp3339
a((dp3340
S'exec'
p3341
I01
sI00
tp3342
a((dp3343
S'waste'
p3344
I01
sI01
tp3345
a((dp3346
S'plant'
p3347
I01
sI01
tp3348
a((dp3349
S'fire'
p3350
I01
sI01
tp3351
a((dp3352
S'force'
p3353
I01
sI01
tp3354
a((dp3355
S'evacuate'
p3356
I01
sI01
tp3357
a((dp3358
S'official'
p3359
I01
sI01
tp3360
a((dp3361
S'laugh'
p3362
I01
sI01
tp3363
a((dp3364
S'copyright'
p3365
I01
sI00
tp3366
a((dp3367
S'claim'
p3368
I01
sI00
tp3369
a((dp3370
S'reject'
p3371
I01
sI00
tp3372
a((dp3373
S'opera'
p3374
I01
sI00
tp3375
a((dp3376
S'cancele'
p3377
I01
sI00
tp3378
a((dp3379
S'over'
p3380
I01
sI00
tp3381
a((dp3382
S'depiction'
p3383
I01
sI00
tp3384
a((dp3385
S'muhammad'
p3386
I01
sI00
tp3387
a((dp3388
S'dead'
p3389
I01
sI01
tp3390
a((dp3391
S'bachelor'
p3392
I01
sI01
tp3393
a((dp3394
S'remote'
p3395
I01
sI01
tp3396
a((dp3397
S'china'
p3398
I01
sI01
tp3399
a((dp3400
S'still'
p3401
I01
sI01
tp3402
a((dp3403
S'find'
p3404
I01
sI01
tp3405
a((dp3406
S'wive'
p3407
I01
sI01
tp3408
a((dp3409
S'google'
p3410
I01
sI01
tp3411
a((dp3412
S'unveil'
p3413
I01
sI01
tp3414
a((dp3415
S'election'
p3416
I01
sI01
tp3417
a((dp3418
S'mortar'
p3419
I01
sI00
tp3420
a((dp3421
S'assault'
p3422
I01
sI00
tp3423
a((dp3424
S'leave'
p3425
I01
sI00
tp3426
a((dp3427
S'least'
p3428
I01
sI00
tp3429
a((dp3430
S'18'
p3431
I01
sI00
tp3432
a((dp3433
S'dead'
p3434
I01
sI00
tp3435
a((dp3436
S'warner'
p3437
I01
sI00
tp3438
a((dp3439
S'run'
p3440
I01
sI00
tp3441
a((dp3442
S'madonna'
p3443
I01
sI01
tp3444
a((dp3445
S'adoption'
p3446
I01
sI01
tp3447
a((dp3448
S'bid'
p3449
I01
sI01
tp3450
a((dp3451
S'approve'
p3452
I01
sI01
tp3453
a((dp3454
S'date'
p3455
I01
sI00
tp3456
a((dp3457
S'difficult'
p3458
I01
sI00
tp3459
a((dp3460
S'harry'
p3461
I01
sI00
tp3462
a((dp3463
S'potter'
p3464
I01
sI00
tp3465
a((dp3466
S'weigh'
p3467
I01
sI00
tp3468
a((dp3469
S'sanction'
p3470
I01
sI00
tp3471
a((dp3472
S'north'
p3473
I01
sI00
tp3474
a((dp3475
S'korea'
p3476
I01
sI00
tp3477
a((dp3478
S'appeal'
p3479
I01
sI00
tp3480
a((dp3481
S'casino'
p3482
I01
sI00
tp3483
a((dp3484
S'wrangle'
p3485
I01
sI00
tp3486
a((dp3487
S'happy'
p3488
I01
sI01
tp3489
a((dp3490
S'birthday'
p3491
I01
sI01
tp3492
a((dp3493
S'ipod'
p3494
I01
sI01
tp3495
a((dp3496
S'minutemen'
p3497
I01
sI01
tp3498
a((dp3499
S'right'
p3500
I01
sI01
tp3501
a((dp3502
S'idiotic'
p3503
I01
sI01
tp3504
a((dp3505
S'new'
p3506
I01
sI00
tp3507
a((dp3508
S'iraq'
p3509
I01
sI00
tp3510
a((dp3511
S'terror'
p3512
I01
sI00
tp3513
a((dp3514
S'tape'
p3515
I01
sI00
tp3516
a((dp3517
S'call'
p3518
I01
sI00
tp3519
a((dp3520
S'abduct'
p3521
I01
sI00
tp3522
a((dp3523
S'foreigner'
p3524
I01
sI00
tp3525
a((dp3526
S'martian'
p3527
I01
sI00
tp3528
a((dp3529
S'life'
p3530
I01
sI00
tp3531
a((dp3532
S'have'
p3533
I01
sI00
tp3534
a((dp3535
S'evade'
p3536
I01
sI00
tp3537
a((dp3538
S'detection'
p3539
I01
sI00
tp3540
a((dp3541
S'vike'
p3542
I01
sI00
tp3543
a((dp3544
S'lander'
p3545
I01
sI00
tp3546
a((dp3547
S'britain'
p3548
I01
sI00
tp3549
a((dp3550
S'restrict'
p3551
I01
sI00
tp3552
a((dp3553
S'immigrant'
p3554
I01
sI00
tp3555
a((dp3556
S'new'
p3557
I01
sI00
tp3558
a((dp3559
S'eu'
p3560
I01
sI00
tp3561
a((dp3562
S'member'
p3563
I01
sI00
tp3564
a((dp3565
S'death'
p3566
I01
sI00
tp3567
a((dp3568
S'link'
p3569
I01
sI00
tp3570
a((dp3571
S'flu'
p3572
I01
sI00
tp3573
a((dp3574
S'vaccine'
p3575
I01
sI00
tp3576
a((dp3577
S'chef'
p3578
I01
sI00
tp3579
a((dp3580
S'count'
p3581
I01
sI00
tp3582
a((dp3583
S'calory'
p3584
I01
sI00
tp3585
a((dp3586
S'study'
p3587
I01
sI00
tp3588
a((dp3589
S'find'
p3590
I01
sI00
tp3591
a((dp3592
S'do'
p3593
I01
sI00
tp3594
a((dp3595
S'vike'
p3596
I01
sI00
tp3597
a((dp3598
S'probe'
p3599
I01
sI00
tp3600
a((dp3601
S'miss'
p3602
I01
sI00
tp3603
a((dp3604
S'life'
p3605
I01
sI00
tp3606
a((dp3607
S'mar'
p3608
I01
sI00
tp3609
a((dp3610
S'cohn'
p3611
I01
sI01
tp3612
a((dp3613
S'gunman'
p3614
I01
sI01
tp3615
a((dp3616
S'jail'
p3617
I01
sI01
tp3618
a((dp3619
S'36'
p3620
I01
sI01
tp3621
a((dp3622
S'year'
p3623
I01
sI01
tp3624
a((dp3625
S'khan'
p3626
I01
sI01
tp3627
a((dp3628
S'beer'
p3629
I01
sI01
tp3630
a((dp3631
S'mongolia'
p3632
I01
sI01
tp3633
a((dp3634
S'grimace'
p3635
I01
sI01
tp3636
a.